??_7attribute_error@pybind11@@6B@ DATA
??_7buffer_error@pybind11@@6B@ DATA
??_7builtin_exception@pybind11@@6B@ DATA
??_7cast_error@pybind11@@6B@ DATA
??_7error_already_set@pybind11@@6B@ DATA
??_7FOOTPRINT_INFO@@6B@ DATA
??_7FOOTPRINT_LIST@@6B@ DATA
??_7FOOTPRINT_PREVIEW_PANEL_BASE@@6B@ DATA
??_7import_error@pybind11@@6B@ DATA
??_7index_error@pybind11@@6B@ DATA
??_7key_error@pybind11@@6B@ DATA
??_7LIB_TREE_ITEM@@6B@ DATA
??_7reference_cast_error@pybind11@@6B@ DATA
??_7stop_iteration@pybind11@@6B@ DATA
??_7type_error@pybind11@@6B@ DATA
??_7value_error@pybind11@@6B@ DATA
??0attribute_error@pybind11@@QEAA@$$QEAV01@@Z
??0attribute_error@pybind11@@QEAA@AEBV?$basic_string@DU?$char_traits@D@std@@V?$allocator@D@2@@std@@@Z
??0attribute_error@pybind11@@QEAA@AEBV01@@Z
??0attribute_error@pybind11@@QEAA@PEBD@Z
??0attribute_error@pybind11@@QEAA@XZ
??0buffer_error@pybind11@@QEAA@$$QEAV01@@Z
??0buffer_error@pybind11@@QEAA@AEBV?$basic_string@DU?$char_traits@D@std@@V?$allocator@D@2@@std@@@Z
??0buffer_error@pybind11@@QEAA@AEBV01@@Z
??0buffer_error@pybind11@@QEAA@PEBD@Z
??0buffer_error@pybind11@@QEAA@XZ
??0builtin_exception@pybind11@@QEAA@$$QEAV01@@Z
??0builtin_exception@pybind11@@QEAA@AEBV?$basic_string@DU?$char_traits@D@std@@V?$allocator@D@2@@std@@@Z
??0builtin_exception@pybind11@@QEAA@AEBV01@@Z
??0builtin_exception@pybind11@@QEAA@PEBD@Z
??0cast_error@pybind11@@QEAA@$$QEAV01@@Z
??0cast_error@pybind11@@QEAA@AEBV?$basic_string@DU?$char_traits@D@std@@V?$allocator@D@2@@std@@@Z
??0cast_error@pybind11@@QEAA@AEBV01@@Z
??0cast_error@pybind11@@QEAA@PEBD@Z
??0cast_error@pybind11@@QEAA@XZ
??0error_already_set@pybind11@@QEAA@$$QEAV01@@Z
??0error_already_set@pybind11@@QEAA@AEBV01@@Z
??0error_already_set@pybind11@@QEAA@XZ
??0FOOTPRINT_INFO@@QEAA@AEBV0@@Z
??0FOOTPRINT_INFO@@QEAA@XZ
??0FOOTPRINT_LIST@@QEAA@XZ
??0FOOTPRINT_PREVIEW_PANEL_BASE@@QEAA@AEBV0@@Z
??0FOOTPRINT_PREVIEW_PANEL_BASE@@QEAA@XZ
??0import_error@pybind11@@QEAA@$$QEAV01@@Z
??0import_error@pybind11@@QEAA@AEBV?$basic_string@DU?$char_traits@D@std@@V?$allocator@D@2@@std@@@Z
??0import_error@pybind11@@QEAA@AEBV01@@Z
??0import_error@pybind11@@QEAA@PEBD@Z
??0import_error@pybind11@@QEAA@XZ
??0index_error@pybind11@@QEAA@$$QEAV01@@Z
??0index_error@pybind11@@QEAA@AEBV?$basic_string@DU?$char_traits@D@std@@V?$allocator@D@2@@std@@@Z
??0index_error@pybind11@@QEAA@AEBV01@@Z
??0index_error@pybind11@@QEAA@PEBD@Z
??0index_error@pybind11@@QEAA@XZ
??0key_error@pybind11@@QEAA@$$QEAV01@@Z
??0key_error@pybind11@@QEAA@AEBV?$basic_string@DU?$char_traits@D@std@@V?$allocator@D@2@@std@@@Z
??0key_error@pybind11@@QEAA@AEBV01@@Z
??0key_error@pybind11@@QEAA@PEBD@Z
??0key_error@pybind11@@QEAA@XZ
??0LIB_TREE_ITEM@@QEAA@AEBV0@@Z
??0LIB_TREE_ITEM@@QEAA@XZ
??0reference_cast_error@pybind11@@QEAA@$$QEAV01@@Z
??0reference_cast_error@pybind11@@QEAA@AEBV?$basic_string@DU?$char_traits@D@std@@V?$allocator@D@2@@std@@@Z
??0reference_cast_error@pybind11@@QEAA@AEBV01@@Z
??0reference_cast_error@pybind11@@QEAA@PEBD@Z
??0reference_cast_error@pybind11@@QEAA@XZ
??0stop_iteration@pybind11@@QEAA@$$QEAV01@@Z
??0stop_iteration@pybind11@@QEAA@AEBV?$basic_string@DU?$char_traits@D@std@@V?$allocator@D@2@@std@@@Z
??0stop_iteration@pybind11@@QEAA@AEBV01@@Z
??0stop_iteration@pybind11@@QEAA@PEBD@Z
??0stop_iteration@pybind11@@QEAA@XZ
??0type_error@pybind11@@QEAA@$$QEAV01@@Z
??0type_error@pybind11@@QEAA@AEBV?$basic_string@DU?$char_traits@D@std@@V?$allocator@D@2@@std@@@Z
??0type_error@pybind11@@QEAA@AEBV01@@Z
??0type_error@pybind11@@QEAA@PEBD@Z
??0type_error@pybind11@@QEAA@XZ
??0value_error@pybind11@@QEAA@$$QEAV01@@Z
??0value_error@pybind11@@QEAA@AEBV?$basic_string@DU?$char_traits@D@std@@V?$allocator@D@2@@std@@@Z
??0value_error@pybind11@@QEAA@AEBV01@@Z
??0value_error@pybind11@@QEAA@PEBD@Z
??0value_error@pybind11@@QEAA@XZ
??1attribute_error@pybind11@@UEAA@XZ
??1buffer_error@pybind11@@UEAA@XZ
??1builtin_exception@pybind11@@UEAA@XZ
??1cast_error@pybind11@@UEAA@XZ
??1error_already_set@pybind11@@UEAA@XZ
??1FOOTPRINT_INFO@@UEAA@XZ
??1FOOTPRINT_LIST@@UEAA@XZ
??1FOOTPRINT_PREVIEW_PANEL_BASE@@UEAA@XZ
??1import_error@pybind11@@UEAA@XZ
??1index_error@pybind11@@UEAA@XZ
??1key_error@pybind11@@UEAA@XZ
??1LIB_TREE_ITEM@@UEAA@XZ
??1reference_cast_error@pybind11@@UEAA@XZ
??1stop_iteration@pybind11@@UEAA@XZ
??1type_error@pybind11@@UEAA@XZ
??1value_error@pybind11@@UEAA@XZ
??4attribute_error@pybind11@@QEAAAEAV01@$$QEAV01@@Z
??4attribute_error@pybind11@@QEAAAEAV01@AEBV01@@Z
??4buffer_error@pybind11@@QEAAAEAV01@$$QEAV01@@Z
??4buffer_error@pybind11@@QEAAAEAV01@AEBV01@@Z
??4builtin_exception@pybind11@@QEAAAEAV01@$$QEAV01@@Z
??4builtin_exception@pybind11@@QEAAAEAV01@AEBV01@@Z
??4cast_error@pybind11@@QEAAAEAV01@$$QEAV01@@Z
??4cast_error@pybind11@@QEAAAEAV01@AEBV01@@Z
??4FOOTPRINT_INFO@@QEAAAEAV0@AEBV0@@Z
??4FOOTPRINT_PREVIEW_PANEL_BASE@@QEAAAEAV0@AEBV0@@Z
??4import_error@pybind11@@QEAAAEAV01@$$QEAV01@@Z
??4import_error@pybind11@@QEAAAEAV01@AEBV01@@Z
??4index_error@pybind11@@QEAAAEAV01@$$QEAV01@@Z
??4index_error@pybind11@@QEAAAEAV01@AEBV01@@Z
??4key_error@pybind11@@QEAAAEAV01@$$QEAV01@@Z
??4key_error@pybind11@@QEAAAEAV01@AEBV01@@Z
??4LIB_TREE_ITEM@@QEAAAEAV0@AEBV0@@Z
??4reference_cast_error@pybind11@@QEAAAEAV01@$$QEAV01@@Z
??4reference_cast_error@pybind11@@QEAAAEAV01@AEBV01@@Z
??4stop_iteration@pybind11@@QEAAAEAV01@$$QEAV01@@Z
??4stop_iteration@pybind11@@QEAAAEAV01@AEBV01@@Z
??4type_error@pybind11@@QEAAAEAV01@$$QEAV01@@Z
??4type_error@pybind11@@QEAAAEAV01@AEBV01@@Z
??4value_error@pybind11@@QEAAAEAV01@$$QEAV01@@Z
??4value_error@pybind11@@QEAAAEAV01@AEBV01@@Z
?clear@error_already_set@pybind11@@QEAAXXZ
?Create@FOOTPRINT_PREVIEW_PANEL_BASE@@SAPEAV1@PEAVwxWindow@@AEAVKIWAY@@@Z
?discard_as_unraisable@error_already_set@pybind11@@QEAAXPEBD@Z
?discard_as_unraisable@error_already_set@pybind11@@QEAAXVobject@2@@Z
?DisplayErrors@FOOTPRINT_LIST@@QEAAXPEAVwxTopLevelWindow@@@Z
?ensure_loaded@FOOTPRINT_INFO@@IEAAXXZ
?FindPlugin@SCH_IO_MGR@@SAPEAVSCH_IO@@W4SCH_FILE_T@1@@Z
?GetChooserFields@LIB_TREE_ITEM@@UEAAXAEAV?$map@VwxString@@V1@U?$less@VwxString@@@std@@V?$allocator@U?$pair@$$CBVwxString@@V1@@std@@@3@@std@@@Z
?GetCount@FOOTPRINT_LIST@@QEBAIXZ
?GetDescription@FOOTPRINT_INFO@@UEAA?AVwxString@@XZ
?GetErrorCount@FOOTPRINT_LIST@@QEBAIXZ
?GetFootprint@LIB_TREE_ITEM@@UEAA?AVwxString@@XZ
?GetFootprintInfo@FOOTPRINT_LIST@@QEAAPEAVFOOTPRINT_INFO@@AEBVwxString@@@Z
?GetFootprintInfo@FOOTPRINT_LIST@@QEAAPEAVFOOTPRINT_INFO@@AEBVwxString@@0@Z
?GetFootprintName@FOOTPRINT_INFO@@QEBAAEBVwxString@@XZ
?GetInstance@FOOTPRINT_LIST@@SAPEAV1@AEAVKIWAY@@@Z
?GetItem@FOOTPRINT_LIST@@QEBAAEAVFOOTPRINT_INFO@@I@Z
?GetKeywords@FOOTPRINT_INFO@@QEAA?AVwxString@@XZ
?GetLibId@FOOTPRINT_INFO@@UEBA?AVLIB_ID@@XZ
?GetLibNickname@FOOTPRINT_INFO@@UEBA?AVwxString@@XZ
?GetList@FOOTPRINT_LIST@@QEBAAEBV?$vector@V?$unique_ptr@VFOOTPRINT_INFO@@U?$default_delete@VFOOTPRINT_INFO@@@std@@@std@@V?$allocator@V?$unique_ptr@VFOOTPRINT_INFO@@U?$default_delete@VFOOTPRINT_INFO@@@std@@@std@@@2@@std@@XZ
?GetName@FOOTPRINT_INFO@@UEBA?AVwxString@@XZ
?GetOrderNum@FOOTPRINT_INFO@@QEAAHXZ
?GetPadCount@FOOTPRINT_INFO@@QEAAIXZ
?GetPinCount@FOOTPRINT_INFO@@UEAAHXZ
?GetPinCount@LIB_TREE_ITEM@@UEAAHXZ
?GetSearchTerms@FOOTPRINT_INFO@@UEAA?AV?$vector@USEARCH_TERM@@V?$allocator@USEARCH_TERM@@@std@@@std@@XZ
?GetSearchTerms@LIB_TREE_ITEM@@UEAA?AV?$vector@USEARCH_TERM@@V?$allocator@USEARCH_TERM@@@std@@@std@@XZ
?GetTable@FOOTPRINT_LIST@@QEBAPEAVFP_LIB_TABLE@@XZ
?GetUniquePadCount@FOOTPRINT_INFO@@QEAAIXZ
?GetUnitCount@LIB_TREE_ITEM@@UEBAHXZ
?GetUnitDisplayName@LIB_TREE_ITEM@@UEAA?AVwxString@@H@Z
?GetUnitReference@LIB_TREE_ITEM@@UEAA?AVwxString@@H@Z
?HasUnitDisplayName@LIB_TREE_ITEM@@UEAA_NH@Z
?InLibrary@FOOTPRINT_INFO@@QEBA_NAEBVwxString@@@Z
?IsRoot@LIB_TREE_ITEM@@UEBA_NXZ
?load@FOOTPRINT_INFO@@MEAAXXZ
?matches@error_already_set@pybind11@@QEBA_NVhandle@2@@Z
?PopError@FOOTPRINT_LIST@@QEAA?AV?$unique_ptr@VIO_ERROR@@U?$default_delete@VIO_ERROR@@@std@@@std@@XZ
?ReadCacheFromFile@FOOTPRINT_LIST@@UEAAXAEBVwxString@@@Z
?restore@error_already_set@pybind11@@QEAAXXZ
?set_error@attribute_error@pybind11@@UEBAXXZ
?set_error@buffer_error@pybind11@@UEBAXXZ
?set_error@cast_error@pybind11@@UEBAXXZ
?set_error@import_error@pybind11@@UEBAXXZ
?set_error@index_error@pybind11@@UEBAXXZ
?set_error@key_error@pybind11@@UEBAXXZ
?set_error@reference_cast_error@pybind11@@UEBAXXZ
?set_error@stop_iteration@pybind11@@UEBAXXZ
?set_error@type_error@pybind11@@UEBAXXZ
?set_error@value_error@pybind11@@UEBAXXZ
?trace@error_already_set@pybind11@@QEBAAEBVobject@2@XZ
?type@error_already_set@pybind11@@QEBAAEBVobject@2@XZ
?value@error_already_set@pybind11@@QEBAAEBVobject@2@XZ
?WriteCacheToFile@FOOTPRINT_LIST@@UEAAXAEBVwxString@@@Z
jump_fcontext
KIFACE_1
make_fcontext
NoHotPatch
