	.include "wrap.inc"
	.text
	WRAP ??0FOOTPRINT_INFO@@QEAA@AEBV0@@Z
	WRAP ??0FOOTPRINT_INFO@@QEAA@XZ
	WRAP ??0FOOTPRINT_LIST@@QEAA@XZ
	WRAP ??0FOOTPRINT_PREVIEW_PANEL_BASE@@QEAA@AEBV0@@Z
	WRAP ??0FOOTPRINT_PREVIEW_PANEL_BASE@@QEAA@XZ
	WRAP ??0LIB_TREE_ITEM@@QEAA@AEBV0@@Z
	WRAP ??0LIB_TREE_ITEM@@QEAA@XZ
	WRAP ??0attribute_error@pybind11@@QEAA@$$QEAV01@@Z
	WRAP ??0attribute_error@pybind11@@QEAA@AEBV01@@Z
	WRAP ??0attribute_error@pybind11@@QEAA@AEBV?$basic_string@DU?$char_traits@D@std@@V?$allocator@D@2@@std@@@Z
	WRAP ??0attribute_error@pybind11@@QEAA@PEBD@Z
	WRAP ??0attribute_error@pybind11@@QEAA@XZ
	WRAP ??0buffer_error@pybind11@@QEAA@$$QEAV01@@Z
	WRAP ??0buffer_error@pybind11@@QEAA@AEBV01@@Z
	WRAP ??0buffer_error@pybind11@@QEAA@AEBV?$basic_string@DU?$char_traits@D@std@@V?$allocator@D@2@@std@@@Z
	WRAP ??0buffer_error@pybind11@@QEAA@PEBD@Z
	WRAP ??0buffer_error@pybind11@@QEAA@XZ
	WRAP ??0builtin_exception@pybind11@@QEAA@$$QEAV01@@Z
	WRAP ??0builtin_exception@pybind11@@QEAA@AEBV01@@Z
	WRAP ??0builtin_exception@pybind11@@QEAA@AEBV?$basic_string@DU?$char_traits@D@std@@V?$allocator@D@2@@std@@@Z
	WRAP ??0builtin_exception@pybind11@@QEAA@PEBD@Z
	WRAP ??0cast_error@pybind11@@QEAA@$$QEAV01@@Z
	WRAP ??0cast_error@pybind11@@QEAA@AEBV01@@Z
	WRAP ??0cast_error@pybind11@@QEAA@AEBV?$basic_string@DU?$char_traits@D@std@@V?$allocator@D@2@@std@@@Z
	WRAP ??0cast_error@pybind11@@QEAA@PEBD@Z
	WRAP ??0cast_error@pybind11@@QEAA@XZ
	WRAP ??0error_already_set@pybind11@@QEAA@$$QEAV01@@Z
	WRAP ??0error_already_set@pybind11@@QEAA@AEBV01@@Z
	WRAP ??0error_already_set@pybind11@@QEAA@XZ
	WRAP ??0import_error@pybind11@@QEAA@$$QEAV01@@Z
	WRAP ??0import_error@pybind11@@QEAA@AEBV01@@Z
	WRAP ??0import_error@pybind11@@QEAA@AEBV?$basic_string@DU?$char_traits@D@std@@V?$allocator@D@2@@std@@@Z
	WRAP ??0import_error@pybind11@@QEAA@PEBD@Z
	WRAP ??0import_error@pybind11@@QEAA@XZ
	WRAP ??0index_error@pybind11@@QEAA@$$QEAV01@@Z
	WRAP ??0index_error@pybind11@@QEAA@AEBV01@@Z
	WRAP ??0index_error@pybind11@@QEAA@AEBV?$basic_string@DU?$char_traits@D@std@@V?$allocator@D@2@@std@@@Z
	WRAP ??0index_error@pybind11@@QEAA@PEBD@Z
	WRAP ??0index_error@pybind11@@QEAA@XZ
	WRAP ??0key_error@pybind11@@QEAA@$$QEAV01@@Z
	WRAP ??0key_error@pybind11@@QEAA@AEBV01@@Z
	WRAP ??0key_error@pybind11@@QEAA@AEBV?$basic_string@DU?$char_traits@D@std@@V?$allocator@D@2@@std@@@Z
	WRAP ??0key_error@pybind11@@QEAA@PEBD@Z
	WRAP ??0key_error@pybind11@@QEAA@XZ
	WRAP ??0reference_cast_error@pybind11@@QEAA@$$QEAV01@@Z
	WRAP ??0reference_cast_error@pybind11@@QEAA@AEBV01@@Z
	WRAP ??0reference_cast_error@pybind11@@QEAA@AEBV?$basic_string@DU?$char_traits@D@std@@V?$allocator@D@2@@std@@@Z
	WRAP ??0reference_cast_error@pybind11@@QEAA@PEBD@Z
	WRAP ??0reference_cast_error@pybind11@@QEAA@XZ
	WRAP ??0stop_iteration@pybind11@@QEAA@$$QEAV01@@Z
	WRAP ??0stop_iteration@pybind11@@QEAA@AEBV01@@Z
	WRAP ??0stop_iteration@pybind11@@QEAA@AEBV?$basic_string@DU?$char_traits@D@std@@V?$allocator@D@2@@std@@@Z
	WRAP ??0stop_iteration@pybind11@@QEAA@PEBD@Z
	WRAP ??0stop_iteration@pybind11@@QEAA@XZ
	WRAP ??0type_error@pybind11@@QEAA@$$QEAV01@@Z
	WRAP ??0type_error@pybind11@@QEAA@AEBV01@@Z
	WRAP ??0type_error@pybind11@@QEAA@AEBV?$basic_string@DU?$char_traits@D@std@@V?$allocator@D@2@@std@@@Z
	WRAP ??0type_error@pybind11@@QEAA@PEBD@Z
	WRAP ??0type_error@pybind11@@QEAA@XZ
	WRAP ??0value_error@pybind11@@QEAA@$$QEAV01@@Z
	WRAP ??0value_error@pybind11@@QEAA@AEBV01@@Z
	WRAP ??0value_error@pybind11@@QEAA@AEBV?$basic_string@DU?$char_traits@D@std@@V?$allocator@D@2@@std@@@Z
	WRAP ??0value_error@pybind11@@QEAA@PEBD@Z
	WRAP ??0value_error@pybind11@@QEAA@XZ
	WRAP ??1FOOTPRINT_INFO@@UEAA@XZ
	WRAP ??1FOOTPRINT_LIST@@UEAA@XZ
	WRAP ??1FOOTPRINT_PREVIEW_PANEL_BASE@@UEAA@XZ
	WRAP ??1LIB_TREE_ITEM@@UEAA@XZ
	WRAP ??1attribute_error@pybind11@@UEAA@XZ
	WRAP ??1buffer_error@pybind11@@UEAA@XZ
	WRAP ??1builtin_exception@pybind11@@UEAA@XZ
	WRAP ??1cast_error@pybind11@@UEAA@XZ
	WRAP ??1error_already_set@pybind11@@UEAA@XZ
	WRAP ??1import_error@pybind11@@UEAA@XZ
	WRAP ??1index_error@pybind11@@UEAA@XZ
	WRAP ??1key_error@pybind11@@UEAA@XZ
	WRAP ??1reference_cast_error@pybind11@@UEAA@XZ
	WRAP ??1stop_iteration@pybind11@@UEAA@XZ
	WRAP ??1type_error@pybind11@@UEAA@XZ
	WRAP ??1value_error@pybind11@@UEAA@XZ
	WRAP ??4FOOTPRINT_INFO@@QEAAAEAV0@AEBV0@@Z
	WRAP ??4FOOTPRINT_PREVIEW_PANEL_BASE@@QEAAAEAV0@AEBV0@@Z
	WRAP ??4LIB_TREE_ITEM@@QEAAAEAV0@AEBV0@@Z
	WRAP ??4attribute_error@pybind11@@QEAAAEAV01@$$QEAV01@@Z
	WRAP ??4attribute_error@pybind11@@QEAAAEAV01@AEBV01@@Z
	WRAP ??4buffer_error@pybind11@@QEAAAEAV01@$$QEAV01@@Z
	WRAP ??4buffer_error@pybind11@@QEAAAEAV01@AEBV01@@Z
	WRAP ??4builtin_exception@pybind11@@QEAAAEAV01@$$QEAV01@@Z
	WRAP ??4builtin_exception@pybind11@@QEAAAEAV01@AEBV01@@Z
	WRAP ??4cast_error@pybind11@@QEAAAEAV01@$$QEAV01@@Z
	WRAP ??4cast_error@pybind11@@QEAAAEAV01@AEBV01@@Z
	WRAP ??4import_error@pybind11@@QEAAAEAV01@$$QEAV01@@Z
	WRAP ??4import_error@pybind11@@QEAAAEAV01@AEBV01@@Z
	WRAP ??4index_error@pybind11@@QEAAAEAV01@$$QEAV01@@Z
	WRAP ??4index_error@pybind11@@QEAAAEAV01@AEBV01@@Z
	WRAP ??4key_error@pybind11@@QEAAAEAV01@$$QEAV01@@Z
	WRAP ??4key_error@pybind11@@QEAAAEAV01@AEBV01@@Z
	WRAP ??4reference_cast_error@pybind11@@QEAAAEAV01@$$QEAV01@@Z
	WRAP ??4reference_cast_error@pybind11@@QEAAAEAV01@AEBV01@@Z
	WRAP ??4stop_iteration@pybind11@@QEAAAEAV01@$$QEAV01@@Z
	WRAP ??4stop_iteration@pybind11@@QEAAAEAV01@AEBV01@@Z
	WRAP ??4type_error@pybind11@@QEAAAEAV01@$$QEAV01@@Z
	WRAP ??4type_error@pybind11@@QEAAAEAV01@AEBV01@@Z
	WRAP ??4value_error@pybind11@@QEAAAEAV01@$$QEAV01@@Z
	WRAP ??4value_error@pybind11@@QEAAAEAV01@AEBV01@@Z
	WRAP ?Create@FOOTPRINT_PREVIEW_PANEL_BASE@@SAPEAV1@PEAVwxWindow@@AEAVKIWAY@@@Z
	WRAP ?DisplayErrors@FOOTPRINT_LIST@@QEAAXPEAVwxTopLevelWindow@@@Z
	WRAP ?FindPlugin@SCH_IO_MGR@@SAPEAVSCH_IO@@W4SCH_FILE_T@1@@Z
	WRAP ?GetChooserFields@LIB_TREE_ITEM@@UEAAXAEAV?$map@VwxString@@V1@U?$less@VwxString@@@std@@V?$allocator@U?$pair@$$CBVwxString@@V1@@std@@@3@@std@@@Z
	WRAP ?GetCount@FOOTPRINT_LIST@@QEBAIXZ
	WRAP ?GetDescription@FOOTPRINT_INFO@@UEAA?AVwxString@@XZ
	WRAP ?GetErrorCount@FOOTPRINT_LIST@@QEBAIXZ
	WRAP ?GetFootprint@LIB_TREE_ITEM@@UEAA?AVwxString@@XZ
	WRAP ?GetFootprintInfo@FOOTPRINT_LIST@@QEAAPEAVFOOTPRINT_INFO@@AEBVwxString@@0@Z
	WRAP ?GetFootprintInfo@FOOTPRINT_LIST@@QEAAPEAVFOOTPRINT_INFO@@AEBVwxString@@@Z
	WRAP ?GetFootprintName@FOOTPRINT_INFO@@QEBAAEBVwxString@@XZ
	WRAP ?GetInstance@FOOTPRINT_LIST@@SAPEAV1@AEAVKIWAY@@@Z
	WRAP ?GetItem@FOOTPRINT_LIST@@QEBAAEAVFOOTPRINT_INFO@@I@Z
	WRAP ?GetKeywords@FOOTPRINT_INFO@@QEAA?AVwxString@@XZ
	WRAP ?GetLibId@FOOTPRINT_INFO@@UEBA?AVLIB_ID@@XZ
	WRAP ?GetLibNickname@FOOTPRINT_INFO@@UEBA?AVwxString@@XZ
	WRAP ?GetList@FOOTPRINT_LIST@@QEBAAEBV?$vector@V?$unique_ptr@VFOOTPRINT_INFO@@U?$default_delete@VFOOTPRINT_INFO@@@std@@@std@@V?$allocator@V?$unique_ptr@VFOOTPRINT_INFO@@U?$default_delete@VFOOTPRINT_INFO@@@std@@@std@@@2@@std@@XZ
	WRAP ?GetName@FOOTPRINT_INFO@@UEBA?AVwxString@@XZ
	WRAP ?GetOrderNum@FOOTPRINT_INFO@@QEAAHXZ
	WRAP ?GetPadCount@FOOTPRINT_INFO@@QEAAIXZ
	WRAP ?GetPinCount@FOOTPRINT_INFO@@UEAAHXZ
	WRAP ?GetPinCount@LIB_TREE_ITEM@@UEAAHXZ
	WRAP ?GetSearchTerms@FOOTPRINT_INFO@@UEAA?AV?$vector@USEARCH_TERM@@V?$allocator@USEARCH_TERM@@@std@@@std@@XZ
	WRAP ?GetSearchTerms@LIB_TREE_ITEM@@UEAA?AV?$vector@USEARCH_TERM@@V?$allocator@USEARCH_TERM@@@std@@@std@@XZ
	WRAP ?GetTable@FOOTPRINT_LIST@@QEBAPEAVFP_LIB_TABLE@@XZ
	WRAP ?GetUniquePadCount@FOOTPRINT_INFO@@QEAAIXZ
	WRAP ?GetUnitCount@LIB_TREE_ITEM@@UEBAHXZ
	WRAP ?GetUnitDisplayName@LIB_TREE_ITEM@@UEAA?AVwxString@@H@Z
	WRAP ?GetUnitReference@LIB_TREE_ITEM@@UEAA?AVwxString@@H@Z
	WRAP ?HasUnitDisplayName@LIB_TREE_ITEM@@UEAA_NH@Z
	WRAP ?InLibrary@FOOTPRINT_INFO@@QEBA_NAEBVwxString@@@Z
	WRAP ?IsRoot@LIB_TREE_ITEM@@UEBA_NXZ
	WRAP ?PopError@FOOTPRINT_LIST@@QEAA?AV?$unique_ptr@VIO_ERROR@@U?$default_delete@VIO_ERROR@@@std@@@std@@XZ
	WRAP ?ReadCacheFromFile@FOOTPRINT_LIST@@UEAAXAEBVwxString@@@Z
	WRAP ?WriteCacheToFile@FOOTPRINT_LIST@@UEAAXAEBVwxString@@@Z
	WRAP ?clear@error_already_set@pybind11@@QEAAXXZ
	WRAP ?discard_as_unraisable@error_already_set@pybind11@@QEAAXPEBD@Z
	WRAP ?discard_as_unraisable@error_already_set@pybind11@@QEAAXVobject@2@@Z
	WRAP ?ensure_loaded@FOOTPRINT_INFO@@IEAAXXZ
	WRAP ?load@FOOTPRINT_INFO@@MEAAXXZ
	WRAP ?matches@error_already_set@pybind11@@QEBA_NVhandle@2@@Z
	WRAP ?restore@error_already_set@pybind11@@QEAAXXZ
	WRAP ?set_error@attribute_error@pybind11@@UEBAXXZ
	WRAP ?set_error@buffer_error@pybind11@@UEBAXXZ
	WRAP ?set_error@cast_error@pybind11@@UEBAXXZ
	WRAP ?set_error@import_error@pybind11@@UEBAXXZ
	WRAP ?set_error@index_error@pybind11@@UEBAXXZ
	WRAP ?set_error@key_error@pybind11@@UEBAXXZ
	WRAP ?set_error@reference_cast_error@pybind11@@UEBAXXZ
	WRAP ?set_error@stop_iteration@pybind11@@UEBAXXZ
	WRAP ?set_error@type_error@pybind11@@UEBAXXZ
	WRAP ?set_error@value_error@pybind11@@UEBAXXZ
	WRAP ?trace@error_already_set@pybind11@@QEBAAEBVobject@2@XZ
	WRAP ?type@error_already_set@pybind11@@QEBAAEBVobject@2@XZ
	WRAP ?value@error_already_set@pybind11@@QEBAAEBVobject@2@XZ
	WRAP KIFACE_1
	WRAP NoHotPatch
	WRAP jump_fcontext
	WRAP make_fcontext
