LIBRARY __eeschema
EXPORTS
_??0FOOTPRINT_INFO@@QEAA@AEBV0@@Z==??0FOOTPRINT_INFO@@QEAA@AEBV0@@Z
_??0FOOTPRINT_INFO@@QEAA@XZ==??0FOOTPRINT_INFO@@QEAA@XZ
_??0FOOTPRINT_LIST@@QEAA@XZ==??0FOOTPRINT_LIST@@QEAA@XZ
_??0FOOTPRINT_PREVIEW_PANEL_BASE@@QEAA@AEBV0@@Z==??0FOOTPRINT_PREVIEW_PANEL_BASE@@QEAA@AEBV0@@Z
_??0FOOTPRINT_PREVIEW_PANEL_BASE@@QEAA@XZ==??0FOOTPRINT_PREVIEW_PANEL_BASE@@QEAA@XZ
_??0LIB_TREE_ITEM@@QEAA@AEBV0@@Z==??0LIB_TREE_ITEM@@QEAA@AEBV0@@Z
_??0LIB_TREE_ITEM@@QEAA@XZ==??0LIB_TREE_ITEM@@QEAA@XZ
_??0attribute_error@pybind11@@QEAA@$$QEAV01@@Z==??0attribute_error@pybind11@@QEAA@$$QEAV01@@Z
_??0attribute_error@pybind11@@QEAA@AEBV01@@Z==??0attribute_error@pybind11@@QEAA@AEBV01@@Z
_??0attribute_error@pybind11@@QEAA@AEBV?$basic_string@DU?$char_traits@D@std@@V?$allocator@D@2@@std@@@Z==??0attribute_error@pybind11@@QEAA@AEBV?$basic_string@DU?$char_traits@D@std@@V?$allocator@D@2@@std@@@Z
_??0attribute_error@pybind11@@QEAA@PEBD@Z==??0attribute_error@pybind11@@QEAA@PEBD@Z
_??0attribute_error@pybind11@@QEAA@XZ==??0attribute_error@pybind11@@QEAA@XZ
_??0buffer_error@pybind11@@QEAA@$$QEAV01@@Z==??0buffer_error@pybind11@@QEAA@$$QEAV01@@Z
_??0buffer_error@pybind11@@QEAA@AEBV01@@Z==??0buffer_error@pybind11@@QEAA@AEBV01@@Z
_??0buffer_error@pybind11@@QEAA@AEBV?$basic_string@DU?$char_traits@D@std@@V?$allocator@D@2@@std@@@Z==??0buffer_error@pybind11@@QEAA@AEBV?$basic_string@DU?$char_traits@D@std@@V?$allocator@D@2@@std@@@Z
_??0buffer_error@pybind11@@QEAA@PEBD@Z==??0buffer_error@pybind11@@QEAA@PEBD@Z
_??0buffer_error@pybind11@@QEAA@XZ==??0buffer_error@pybind11@@QEAA@XZ
_??0builtin_exception@pybind11@@QEAA@$$QEAV01@@Z==??0builtin_exception@pybind11@@QEAA@$$QEAV01@@Z
_??0builtin_exception@pybind11@@QEAA@AEBV01@@Z==??0builtin_exception@pybind11@@QEAA@AEBV01@@Z
_??0builtin_exception@pybind11@@QEAA@AEBV?$basic_string@DU?$char_traits@D@std@@V?$allocator@D@2@@std@@@Z==??0builtin_exception@pybind11@@QEAA@AEBV?$basic_string@DU?$char_traits@D@std@@V?$allocator@D@2@@std@@@Z
_??0builtin_exception@pybind11@@QEAA@PEBD@Z==??0builtin_exception@pybind11@@QEAA@PEBD@Z
_??0cast_error@pybind11@@QEAA@$$QEAV01@@Z==??0cast_error@pybind11@@QEAA@$$QEAV01@@Z
_??0cast_error@pybind11@@QEAA@AEBV01@@Z==??0cast_error@pybind11@@QEAA@AEBV01@@Z
_??0cast_error@pybind11@@QEAA@AEBV?$basic_string@DU?$char_traits@D@std@@V?$allocator@D@2@@std@@@Z==??0cast_error@pybind11@@QEAA@AEBV?$basic_string@DU?$char_traits@D@std@@V?$allocator@D@2@@std@@@Z
_??0cast_error@pybind11@@QEAA@PEBD@Z==??0cast_error@pybind11@@QEAA@PEBD@Z
_??0cast_error@pybind11@@QEAA@XZ==??0cast_error@pybind11@@QEAA@XZ
_??0error_already_set@pybind11@@QEAA@$$QEAV01@@Z==??0error_already_set@pybind11@@QEAA@$$QEAV01@@Z
_??0error_already_set@pybind11@@QEAA@AEBV01@@Z==??0error_already_set@pybind11@@QEAA@AEBV01@@Z
_??0error_already_set@pybind11@@QEAA@XZ==??0error_already_set@pybind11@@QEAA@XZ
_??0import_error@pybind11@@QEAA@$$QEAV01@@Z==??0import_error@pybind11@@QEAA@$$QEAV01@@Z
_??0import_error@pybind11@@QEAA@AEBV01@@Z==??0import_error@pybind11@@QEAA@AEBV01@@Z
_??0import_error@pybind11@@QEAA@AEBV?$basic_string@DU?$char_traits@D@std@@V?$allocator@D@2@@std@@@Z==??0import_error@pybind11@@QEAA@AEBV?$basic_string@DU?$char_traits@D@std@@V?$allocator@D@2@@std@@@Z
_??0import_error@pybind11@@QEAA@PEBD@Z==??0import_error@pybind11@@QEAA@PEBD@Z
_??0import_error@pybind11@@QEAA@XZ==??0import_error@pybind11@@QEAA@XZ
_??0index_error@pybind11@@QEAA@$$QEAV01@@Z==??0index_error@pybind11@@QEAA@$$QEAV01@@Z
_??0index_error@pybind11@@QEAA@AEBV01@@Z==??0index_error@pybind11@@QEAA@AEBV01@@Z
_??0index_error@pybind11@@QEAA@AEBV?$basic_string@DU?$char_traits@D@std@@V?$allocator@D@2@@std@@@Z==??0index_error@pybind11@@QEAA@AEBV?$basic_string@DU?$char_traits@D@std@@V?$allocator@D@2@@std@@@Z
_??0index_error@pybind11@@QEAA@PEBD@Z==??0index_error@pybind11@@QEAA@PEBD@Z
_??0index_error@pybind11@@QEAA@XZ==??0index_error@pybind11@@QEAA@XZ
_??0key_error@pybind11@@QEAA@$$QEAV01@@Z==??0key_error@pybind11@@QEAA@$$QEAV01@@Z
_??0key_error@pybind11@@QEAA@AEBV01@@Z==??0key_error@pybind11@@QEAA@AEBV01@@Z
_??0key_error@pybind11@@QEAA@AEBV?$basic_string@DU?$char_traits@D@std@@V?$allocator@D@2@@std@@@Z==??0key_error@pybind11@@QEAA@AEBV?$basic_string@DU?$char_traits@D@std@@V?$allocator@D@2@@std@@@Z
_??0key_error@pybind11@@QEAA@PEBD@Z==??0key_error@pybind11@@QEAA@PEBD@Z
_??0key_error@pybind11@@QEAA@XZ==??0key_error@pybind11@@QEAA@XZ
_??0reference_cast_error@pybind11@@QEAA@$$QEAV01@@Z==??0reference_cast_error@pybind11@@QEAA@$$QEAV01@@Z
_??0reference_cast_error@pybind11@@QEAA@AEBV01@@Z==??0reference_cast_error@pybind11@@QEAA@AEBV01@@Z
_??0reference_cast_error@pybind11@@QEAA@AEBV?$basic_string@DU?$char_traits@D@std@@V?$allocator@D@2@@std@@@Z==??0reference_cast_error@pybind11@@QEAA@AEBV?$basic_string@DU?$char_traits@D@std@@V?$allocator@D@2@@std@@@Z
_??0reference_cast_error@pybind11@@QEAA@PEBD@Z==??0reference_cast_error@pybind11@@QEAA@PEBD@Z
_??0reference_cast_error@pybind11@@QEAA@XZ==??0reference_cast_error@pybind11@@QEAA@XZ
_??0stop_iteration@pybind11@@QEAA@$$QEAV01@@Z==??0stop_iteration@pybind11@@QEAA@$$QEAV01@@Z
_??0stop_iteration@pybind11@@QEAA@AEBV01@@Z==??0stop_iteration@pybind11@@QEAA@AEBV01@@Z
_??0stop_iteration@pybind11@@QEAA@AEBV?$basic_string@DU?$char_traits@D@std@@V?$allocator@D@2@@std@@@Z==??0stop_iteration@pybind11@@QEAA@AEBV?$basic_string@DU?$char_traits@D@std@@V?$allocator@D@2@@std@@@Z
_??0stop_iteration@pybind11@@QEAA@PEBD@Z==??0stop_iteration@pybind11@@QEAA@PEBD@Z
_??0stop_iteration@pybind11@@QEAA@XZ==??0stop_iteration@pybind11@@QEAA@XZ
_??0type_error@pybind11@@QEAA@$$QEAV01@@Z==??0type_error@pybind11@@QEAA@$$QEAV01@@Z
_??0type_error@pybind11@@QEAA@AEBV01@@Z==??0type_error@pybind11@@QEAA@AEBV01@@Z
_??0type_error@pybind11@@QEAA@AEBV?$basic_string@DU?$char_traits@D@std@@V?$allocator@D@2@@std@@@Z==??0type_error@pybind11@@QEAA@AEBV?$basic_string@DU?$char_traits@D@std@@V?$allocator@D@2@@std@@@Z
_??0type_error@pybind11@@QEAA@PEBD@Z==??0type_error@pybind11@@QEAA@PEBD@Z
_??0type_error@pybind11@@QEAA@XZ==??0type_error@pybind11@@QEAA@XZ
_??0value_error@pybind11@@QEAA@$$QEAV01@@Z==??0value_error@pybind11@@QEAA@$$QEAV01@@Z
_??0value_error@pybind11@@QEAA@AEBV01@@Z==??0value_error@pybind11@@QEAA@AEBV01@@Z
_??0value_error@pybind11@@QEAA@AEBV?$basic_string@DU?$char_traits@D@std@@V?$allocator@D@2@@std@@@Z==??0value_error@pybind11@@QEAA@AEBV?$basic_string@DU?$char_traits@D@std@@V?$allocator@D@2@@std@@@Z
_??0value_error@pybind11@@QEAA@PEBD@Z==??0value_error@pybind11@@QEAA@PEBD@Z
_??0value_error@pybind11@@QEAA@XZ==??0value_error@pybind11@@QEAA@XZ
_??1FOOTPRINT_INFO@@UEAA@XZ==??1FOOTPRINT_INFO@@UEAA@XZ
_??1FOOTPRINT_LIST@@UEAA@XZ==??1FOOTPRINT_LIST@@UEAA@XZ
_??1FOOTPRINT_PREVIEW_PANEL_BASE@@UEAA@XZ==??1FOOTPRINT_PREVIEW_PANEL_BASE@@UEAA@XZ
_??1LIB_TREE_ITEM@@UEAA@XZ==??1LIB_TREE_ITEM@@UEAA@XZ
_??1attribute_error@pybind11@@UEAA@XZ==??1attribute_error@pybind11@@UEAA@XZ
_??1buffer_error@pybind11@@UEAA@XZ==??1buffer_error@pybind11@@UEAA@XZ
_??1builtin_exception@pybind11@@UEAA@XZ==??1builtin_exception@pybind11@@UEAA@XZ
_??1cast_error@pybind11@@UEAA@XZ==??1cast_error@pybind11@@UEAA@XZ
_??1error_already_set@pybind11@@UEAA@XZ==??1error_already_set@pybind11@@UEAA@XZ
_??1import_error@pybind11@@UEAA@XZ==??1import_error@pybind11@@UEAA@XZ
_??1index_error@pybind11@@UEAA@XZ==??1index_error@pybind11@@UEAA@XZ
_??1key_error@pybind11@@UEAA@XZ==??1key_error@pybind11@@UEAA@XZ
_??1reference_cast_error@pybind11@@UEAA@XZ==??1reference_cast_error@pybind11@@UEAA@XZ
_??1stop_iteration@pybind11@@UEAA@XZ==??1stop_iteration@pybind11@@UEAA@XZ
_??1type_error@pybind11@@UEAA@XZ==??1type_error@pybind11@@UEAA@XZ
_??1value_error@pybind11@@UEAA@XZ==??1value_error@pybind11@@UEAA@XZ
_??4FOOTPRINT_INFO@@QEAAAEAV0@AEBV0@@Z==??4FOOTPRINT_INFO@@QEAAAEAV0@AEBV0@@Z
_??4FOOTPRINT_PREVIEW_PANEL_BASE@@QEAAAEAV0@AEBV0@@Z==??4FOOTPRINT_PREVIEW_PANEL_BASE@@QEAAAEAV0@AEBV0@@Z
_??4LIB_TREE_ITEM@@QEAAAEAV0@AEBV0@@Z==??4LIB_TREE_ITEM@@QEAAAEAV0@AEBV0@@Z
_??4attribute_error@pybind11@@QEAAAEAV01@$$QEAV01@@Z==??4attribute_error@pybind11@@QEAAAEAV01@$$QEAV01@@Z
_??4attribute_error@pybind11@@QEAAAEAV01@AEBV01@@Z==??4attribute_error@pybind11@@QEAAAEAV01@AEBV01@@Z
_??4buffer_error@pybind11@@QEAAAEAV01@$$QEAV01@@Z==??4buffer_error@pybind11@@QEAAAEAV01@$$QEAV01@@Z
_??4buffer_error@pybind11@@QEAAAEAV01@AEBV01@@Z==??4buffer_error@pybind11@@QEAAAEAV01@AEBV01@@Z
_??4builtin_exception@pybind11@@QEAAAEAV01@$$QEAV01@@Z==??4builtin_exception@pybind11@@QEAAAEAV01@$$QEAV01@@Z
_??4builtin_exception@pybind11@@QEAAAEAV01@AEBV01@@Z==??4builtin_exception@pybind11@@QEAAAEAV01@AEBV01@@Z
_??4cast_error@pybind11@@QEAAAEAV01@$$QEAV01@@Z==??4cast_error@pybind11@@QEAAAEAV01@$$QEAV01@@Z
_??4cast_error@pybind11@@QEAAAEAV01@AEBV01@@Z==??4cast_error@pybind11@@QEAAAEAV01@AEBV01@@Z
_??4import_error@pybind11@@QEAAAEAV01@$$QEAV01@@Z==??4import_error@pybind11@@QEAAAEAV01@$$QEAV01@@Z
_??4import_error@pybind11@@QEAAAEAV01@AEBV01@@Z==??4import_error@pybind11@@QEAAAEAV01@AEBV01@@Z
_??4index_error@pybind11@@QEAAAEAV01@$$QEAV01@@Z==??4index_error@pybind11@@QEAAAEAV01@$$QEAV01@@Z
_??4index_error@pybind11@@QEAAAEAV01@AEBV01@@Z==??4index_error@pybind11@@QEAAAEAV01@AEBV01@@Z
_??4key_error@pybind11@@QEAAAEAV01@$$QEAV01@@Z==??4key_error@pybind11@@QEAAAEAV01@$$QEAV01@@Z
_??4key_error@pybind11@@QEAAAEAV01@AEBV01@@Z==??4key_error@pybind11@@QEAAAEAV01@AEBV01@@Z
_??4reference_cast_error@pybind11@@QEAAAEAV01@$$QEAV01@@Z==??4reference_cast_error@pybind11@@QEAAAEAV01@$$QEAV01@@Z
_??4reference_cast_error@pybind11@@QEAAAEAV01@AEBV01@@Z==??4reference_cast_error@pybind11@@QEAAAEAV01@AEBV01@@Z
_??4stop_iteration@pybind11@@QEAAAEAV01@$$QEAV01@@Z==??4stop_iteration@pybind11@@QEAAAEAV01@$$QEAV01@@Z
_??4stop_iteration@pybind11@@QEAAAEAV01@AEBV01@@Z==??4stop_iteration@pybind11@@QEAAAEAV01@AEBV01@@Z
_??4type_error@pybind11@@QEAAAEAV01@$$QEAV01@@Z==??4type_error@pybind11@@QEAAAEAV01@$$QEAV01@@Z
_??4type_error@pybind11@@QEAAAEAV01@AEBV01@@Z==??4type_error@pybind11@@QEAAAEAV01@AEBV01@@Z
_??4value_error@pybind11@@QEAAAEAV01@$$QEAV01@@Z==??4value_error@pybind11@@QEAAAEAV01@$$QEAV01@@Z
_??4value_error@pybind11@@QEAAAEAV01@AEBV01@@Z==??4value_error@pybind11@@QEAAAEAV01@AEBV01@@Z
_?Create@FOOTPRINT_PREVIEW_PANEL_BASE@@SAPEAV1@PEAVwxWindow@@AEAVKIWAY@@@Z==?Create@FOOTPRINT_PREVIEW_PANEL_BASE@@SAPEAV1@PEAVwxWindow@@AEAVKIWAY@@@Z
_?DisplayErrors@FOOTPRINT_LIST@@QEAAXPEAVwxTopLevelWindow@@@Z==?DisplayErrors@FOOTPRINT_LIST@@QEAAXPEAVwxTopLevelWindow@@@Z
_?FindPlugin@SCH_IO_MGR@@SAPEAVSCH_IO@@W4SCH_FILE_T@1@@Z==?FindPlugin@SCH_IO_MGR@@SAPEAVSCH_IO@@W4SCH_FILE_T@1@@Z
_?GetChooserFields@LIB_TREE_ITEM@@UEAAXAEAV?$map@VwxString@@V1@U?$less@VwxString@@@std@@V?$allocator@U?$pair@$$CBVwxString@@V1@@std@@@3@@std@@@Z==?GetChooserFields@LIB_TREE_ITEM@@UEAAXAEAV?$map@VwxString@@V1@U?$less@VwxString@@@std@@V?$allocator@U?$pair@$$CBVwxString@@V1@@std@@@3@@std@@@Z
_?GetCount@FOOTPRINT_LIST@@QEBAIXZ==?GetCount@FOOTPRINT_LIST@@QEBAIXZ
_?GetDescription@FOOTPRINT_INFO@@UEAA?AVwxString@@XZ==?GetDescription@FOOTPRINT_INFO@@UEAA?AVwxString@@XZ
_?GetErrorCount@FOOTPRINT_LIST@@QEBAIXZ==?GetErrorCount@FOOTPRINT_LIST@@QEBAIXZ
_?GetFootprint@LIB_TREE_ITEM@@UEAA?AVwxString@@XZ==?GetFootprint@LIB_TREE_ITEM@@UEAA?AVwxString@@XZ
_?GetFootprintInfo@FOOTPRINT_LIST@@QEAAPEAVFOOTPRINT_INFO@@AEBVwxString@@0@Z==?GetFootprintInfo@FOOTPRINT_LIST@@QEAAPEAVFOOTPRINT_INFO@@AEBVwxString@@0@Z
_?GetFootprintInfo@FOOTPRINT_LIST@@QEAAPEAVFOOTPRINT_INFO@@AEBVwxString@@@Z==?GetFootprintInfo@FOOTPRINT_LIST@@QEAAPEAVFOOTPRINT_INFO@@AEBVwxString@@@Z
_?GetFootprintName@FOOTPRINT_INFO@@QEBAAEBVwxString@@XZ==?GetFootprintName@FOOTPRINT_INFO@@QEBAAEBVwxString@@XZ
_?GetInstance@FOOTPRINT_LIST@@SAPEAV1@AEAVKIWAY@@@Z==?GetInstance@FOOTPRINT_LIST@@SAPEAV1@AEAVKIWAY@@@Z
_?GetItem@FOOTPRINT_LIST@@QEBAAEAVFOOTPRINT_INFO@@I@Z==?GetItem@FOOTPRINT_LIST@@QEBAAEAVFOOTPRINT_INFO@@I@Z
_?GetKeywords@FOOTPRINT_INFO@@QEAA?AVwxString@@XZ==?GetKeywords@FOOTPRINT_INFO@@QEAA?AVwxString@@XZ
_?GetLibId@FOOTPRINT_INFO@@UEBA?AVLIB_ID@@XZ==?GetLibId@FOOTPRINT_INFO@@UEBA?AVLIB_ID@@XZ
_?GetLibNickname@FOOTPRINT_INFO@@UEBA?AVwxString@@XZ==?GetLibNickname@FOOTPRINT_INFO@@UEBA?AVwxString@@XZ
_?GetList@FOOTPRINT_LIST@@QEBAAEBV?$vector@V?$unique_ptr@VFOOTPRINT_INFO@@U?$default_delete@VFOOTPRINT_INFO@@@std@@@std@@V?$allocator@V?$unique_ptr@VFOOTPRINT_INFO@@U?$default_delete@VFOOTPRINT_INFO@@@std@@@std@@@2@@std@@XZ==?GetList@FOOTPRINT_LIST@@QEBAAEBV?$vector@V?$unique_ptr@VFOOTPRINT_INFO@@U?$default_delete@VFOOTPRINT_INFO@@@std@@@std@@V?$allocator@V?$unique_ptr@VFOOTPRINT_INFO@@U?$default_delete@VFOOTPRINT_INFO@@@std@@@std@@@2@@std@@XZ
_?GetName@FOOTPRINT_INFO@@UEBA?AVwxString@@XZ==?GetName@FOOTPRINT_INFO@@UEBA?AVwxString@@XZ
_?GetOrderNum@FOOTPRINT_INFO@@QEAAHXZ==?GetOrderNum@FOOTPRINT_INFO@@QEAAHXZ
_?GetPadCount@FOOTPRINT_INFO@@QEAAIXZ==?GetPadCount@FOOTPRINT_INFO@@QEAAIXZ
_?GetPinCount@FOOTPRINT_INFO@@UEAAHXZ==?GetPinCount@FOOTPRINT_INFO@@UEAAHXZ
_?GetPinCount@LIB_TREE_ITEM@@UEAAHXZ==?GetPinCount@LIB_TREE_ITEM@@UEAAHXZ
_?GetSearchTerms@FOOTPRINT_INFO@@UEAA?AV?$vector@USEARCH_TERM@@V?$allocator@USEARCH_TERM@@@std@@@std@@XZ==?GetSearchTerms@FOOTPRINT_INFO@@UEAA?AV?$vector@USEARCH_TERM@@V?$allocator@USEARCH_TERM@@@std@@@std@@XZ
_?GetSearchTerms@LIB_TREE_ITEM@@UEAA?AV?$vector@USEARCH_TERM@@V?$allocator@USEARCH_TERM@@@std@@@std@@XZ==?GetSearchTerms@LIB_TREE_ITEM@@UEAA?AV?$vector@USEARCH_TERM@@V?$allocator@USEARCH_TERM@@@std@@@std@@XZ
_?GetTable@FOOTPRINT_LIST@@QEBAPEAVFP_LIB_TABLE@@XZ==?GetTable@FOOTPRINT_LIST@@QEBAPEAVFP_LIB_TABLE@@XZ
_?GetUniquePadCount@FOOTPRINT_INFO@@QEAAIXZ==?GetUniquePadCount@FOOTPRINT_INFO@@QEAAIXZ
_?GetUnitCount@LIB_TREE_ITEM@@UEBAHXZ==?GetUnitCount@LIB_TREE_ITEM@@UEBAHXZ
_?GetUnitDisplayName@LIB_TREE_ITEM@@UEAA?AVwxString@@H@Z==?GetUnitDisplayName@LIB_TREE_ITEM@@UEAA?AVwxString@@H@Z
_?GetUnitReference@LIB_TREE_ITEM@@UEAA?AVwxString@@H@Z==?GetUnitReference@LIB_TREE_ITEM@@UEAA?AVwxString@@H@Z
_?HasUnitDisplayName@LIB_TREE_ITEM@@UEAA_NH@Z==?HasUnitDisplayName@LIB_TREE_ITEM@@UEAA_NH@Z
_?InLibrary@FOOTPRINT_INFO@@QEBA_NAEBVwxString@@@Z==?InLibrary@FOOTPRINT_INFO@@QEBA_NAEBVwxString@@@Z
_?IsRoot@LIB_TREE_ITEM@@UEBA_NXZ==?IsRoot@LIB_TREE_ITEM@@UEBA_NXZ
_?PopError@FOOTPRINT_LIST@@QEAA?AV?$unique_ptr@VIO_ERROR@@U?$default_delete@VIO_ERROR@@@std@@@std@@XZ==?PopError@FOOTPRINT_LIST@@QEAA?AV?$unique_ptr@VIO_ERROR@@U?$default_delete@VIO_ERROR@@@std@@@std@@XZ
_?ReadCacheFromFile@FOOTPRINT_LIST@@UEAAXAEBVwxString@@@Z==?ReadCacheFromFile@FOOTPRINT_LIST@@UEAAXAEBVwxString@@@Z
_?WriteCacheToFile@FOOTPRINT_LIST@@UEAAXAEBVwxString@@@Z==?WriteCacheToFile@FOOTPRINT_LIST@@UEAAXAEBVwxString@@@Z
_?clear@error_already_set@pybind11@@QEAAXXZ==?clear@error_already_set@pybind11@@QEAAXXZ
_?discard_as_unraisable@error_already_set@pybind11@@QEAAXPEBD@Z==?discard_as_unraisable@error_already_set@pybind11@@QEAAXPEBD@Z
_?discard_as_unraisable@error_already_set@pybind11@@QEAAXVobject@2@@Z==?discard_as_unraisable@error_already_set@pybind11@@QEAAXVobject@2@@Z
_?ensure_loaded@FOOTPRINT_INFO@@IEAAXXZ==?ensure_loaded@FOOTPRINT_INFO@@IEAAXXZ
_?load@FOOTPRINT_INFO@@MEAAXXZ==?load@FOOTPRINT_INFO@@MEAAXXZ
_?matches@error_already_set@pybind11@@QEBA_NVhandle@2@@Z==?matches@error_already_set@pybind11@@QEBA_NVhandle@2@@Z
_?restore@error_already_set@pybind11@@QEAAXXZ==?restore@error_already_set@pybind11@@QEAAXXZ
_?set_error@attribute_error@pybind11@@UEBAXXZ==?set_error@attribute_error@pybind11@@UEBAXXZ
_?set_error@buffer_error@pybind11@@UEBAXXZ==?set_error@buffer_error@pybind11@@UEBAXXZ
_?set_error@cast_error@pybind11@@UEBAXXZ==?set_error@cast_error@pybind11@@UEBAXXZ
_?set_error@import_error@pybind11@@UEBAXXZ==?set_error@import_error@pybind11@@UEBAXXZ
_?set_error@index_error@pybind11@@UEBAXXZ==?set_error@index_error@pybind11@@UEBAXXZ
_?set_error@key_error@pybind11@@UEBAXXZ==?set_error@key_error@pybind11@@UEBAXXZ
_?set_error@reference_cast_error@pybind11@@UEBAXXZ==?set_error@reference_cast_error@pybind11@@UEBAXXZ
_?set_error@stop_iteration@pybind11@@UEBAXXZ==?set_error@stop_iteration@pybind11@@UEBAXXZ
_?set_error@type_error@pybind11@@UEBAXXZ==?set_error@type_error@pybind11@@UEBAXXZ
_?set_error@value_error@pybind11@@UEBAXXZ==?set_error@value_error@pybind11@@UEBAXXZ
_?trace@error_already_set@pybind11@@QEBAAEBVobject@2@XZ==?trace@error_already_set@pybind11@@QEBAAEBVobject@2@XZ
_?type@error_already_set@pybind11@@QEBAAEBVobject@2@XZ==?type@error_already_set@pybind11@@QEBAAEBVobject@2@XZ
_?value@error_already_set@pybind11@@QEBAAEBVobject@2@XZ==?value@error_already_set@pybind11@@QEBAAEBVobject@2@XZ
_KIFACE_1==KIFACE_1
_NoHotPatch==NoHotPatch
_jump_fcontext==jump_fcontext
_make_fcontext==make_fcontext
